Microchip MPLAB XC8 Compiler V2.32

Linker command line:

-W-3 --edf=C:\Program Files\Microchip\xc8\v2.32\pic\dat\en_msgs.txt -cn \
  -h+dist/default/production\26.I2C_EEPROM.X.production.sym \
  --cmf=dist/default/production\26.I2C_EEPROM.X.production.cmf -z -Q16F877A \
  -oC:\Users\Naseef\AppData\Local\Temp\xcAs9vk.4 --defsym=__MPLAB_BUILD=1 \
  -Mdist/default/production/26.I2C_EEPROM.X.production.map -E1 \
  -ver=XC8 Compiler --acfsm=1493 -ASTACK=0110h-016Fh -pstack=STACK \
  -ACODE=00h-07FFhx4 -ASTRCODE=00h-01FFFh -ASTRING=00h-0FFhx32 \
  -ACONST=00h-0FFhx32 -AENTRY=00h-0FFhx32 -ACOMMON=070h-07Fh \
  -ABANK0=020h-06Fh -ABANK1=0A0h-0EFh -ABANK2=0110h-016Fh \
  -ABANK3=0190h-01EFh -ARAM=020h-06Fh,0A0h-0EFh,0110h-016Fh,0190h-01EFh \
  -AABS1=020h-07Fh,0A0h-0EFh,0110h-016Fh,0190h-01EFh -ASFR0=00h-01Fh \
  -ASFR1=080h-09Fh -ASFR2=0100h-010Fh -ASFR3=0180h-018Fh \
  -ACONFIG=02007h-02007h -DCONFIG=2 -AIDLOC=02000h-02003h -DIDLOC=2 \
  -AEEDATA=00h-0FFh/02100h -peeprom_data=EEDATA -DEEDATA=2 -DCODE=2 \
  -DSTRCODE=2 -DSTRING=2 -DCONST=2 -DENTRY=2 \
  -preset_vec=00h,intentry,init,end_init -ppowerup=CODE -pcinit=CODE \
  -pfunctab=ENTRY -k C:\Users\Naseef\AppData\Local\Temp\xcAs9vk.o \
  dist/default/production\26.I2C_EEPROM.X.production.o 

Object code version is 3.11

Machine type is 16F877A



                Name                               Link     Load   Length Selector   Space Scale
C:\Users\Naseef\AppData\Local\Temp\xcAs9vk.o
                end_init                              0        0        3        0       0
                config                             2007     2007        1        0       4
                idloc                              2000     2000        4        0       5
dist/default/production\26.I2C_EEPROM.X.production.o
                cinit                               7FA      7FA        6      FF4       0
                config                             2007     2007        1        0       4
                idloc                              2000     2000        4        0       5
                text14                              5E7      5E7       16      BCE       0
                text13                              59D      59D        8      B3A       0
                text12                              5C0      5C0        A      B80       0
                text11                              5CA      5CA        C      B94       0
                text10                              5A5      5A5        9      B4A       0
                text9                               5D6      5D6       11      BAC       0
                text8                               5AE      5AE        9      B5C       0
                text7                               6BB      6BB       40      D76       0
                text6                               5B7      5B7        9      B6E       0
                text5                               680      680       3B      D00       0
                text4                               61C      61C       21      C38       0
                text3                               65E      65E       22      CBC       0
                text2                               63D      63D       21      C7A       0
                text1                               5FD      5FD       1F      BFA       0
                maintext                            6FB      6FB       FF      DF6       0
                cstackCOMMON                         70       70        A       70       1
                bssCOMMON                            7A       7A        2       70       1
                strings                               3        3       32        6       0

TOTAL           Name                               Link     Load   Length     Space
        CLASS   STACK          

        CLASS   CODE           
                end_init                              0        0        3         0
                cinit                               7FA      7FA        6         0
                text14                              5E7      5E7       16         0
                text13                              59D      59D        8         0
                text12                              5C0      5C0        A         0
                text11                              5CA      5CA        C         0
                text10                              5A5      5A5        9         0
                text9                               5D6      5D6       11         0
                text8                               5AE      5AE        9         0
                text7                               6BB      6BB       40         0
                text6                               5B7      5B7        9         0
                text5                               680      680       3B         0
                text4                               61C      61C       21         0
                text3                               65E      65E       22         0
                text2                               63D      63D       21         0
                text1                               5FD      5FD       1F         0
                maintext                            6FB      6FB       FF         0

        CLASS   STRCODE        

        CLASS   STRING         
                strings                               3        3       32         0

        CLASS   CONST          

        CLASS   ENTRY          

        CLASS   COMMON         
                cstackCOMMON                         70       70        A         1
                bssCOMMON                            7A       7A        2         1

        CLASS   BANK0          

        CLASS   BANK1          

        CLASS   BANK2          

        CLASS   BANK3          

        CLASS   RAM            

        CLASS   ABS1           
                abs_s1                               7E       7E        2         1

        CLASS   SFR0           

        CLASS   SFR1           

        CLASS   SFR2           

        CLASS   SFR3           

        CLASS   CONFIG         
                config                             2007     2007        1         4

        CLASS   IDLOC          
                idloc                              2000     2000        4         5

        CLASS   EEDATA         



SEGMENTS        Name                           Load    Length   Top    Selector   Space  Class     Delta

                reset_vec                      000000  000003  000003         0       0  CODE        2
                strings                        000003  000032  000035         6       0  STRING      2
                cstackCOMMON                   000070  00000C  00007C        70       1  COMMON      1
                text13                         00059D  000008  0005A5       B3A       0  CODE        2
                text10                         0005A5  000009  0005AE       B4A       0  CODE        2
                text8                          0005AE  000009  0005B7       B5C       0  CODE        2
                text6                          0005B7  000009  0005C0       B6E       0  CODE        2
                text12                         0005C0  00000A  0005CA       B80       0  CODE        2
                text11                         0005CA  00000C  0005D6       B94       0  CODE        2
                text9                          0005D6  000011  0005E7       BAC       0  CODE        2
                text14                         0005E7  000016  0005FD       BCE       0  CODE        2
                text1                          0005FD  00001F  00061C       BFA       0  CODE        2
                text4                          00061C  000021  00063D       C38       0  CODE        2
                text2                          00063D  000021  00065E       C7A       0  CODE        2
                text3                          00065E  000022  000680       CBC       0  CODE        2
                text5                          000680  00003B  0006BB       D00       0  CODE        2
                text7                          0006BB  000040  0006FB       D76       0  CODE        2
                maintext                       0006FB  0000FF  0007FA       DF6       0  CODE        2
                cinit                          0007FA  000006  000800       FF4       0  CODE        2


UNUSED ADDRESS RANGES

        Name                Unused          Largest block    Delta
        BANK0            0020-006F             50           1
        BANK1            00A0-00EF             50           1
        BANK2            0110-016F             60           1
        BANK3            0190-01EF             60           1
        CODE             0035-059C            568           2
                         0800-1FFF            800
        COMMON           007C-007D              2           1
        CONST            0035-059C            100           2
                         0800-1FFF            100
        EEDATA           2100-21FF            100           2
        ENTRY            0035-059C            100           2
                         0800-1FFF            100
        RAM              0020-006F             50           1
                         00A0-00EF             50
                         0110-016F             60
                         0190-01EF             60
        SFR0             0000-001F             20           1
        SFR1             0080-009F             20           1
        SFR2             0100-010F             10           1
        SFR3             0180-018F             10           1
        STACK            0110-016F             60           1
        STRCODE          0035-059C            568           2
                         0800-1FFF           1800
        STRING           0035-059C            100           2
                         0800-1FFF            100

                                  Symbol Table

_ACKDT                   (abs)        048D
_ACKEN                   (abs)        048C
_ACKSTAT                 (abs)        048E
_PEN                     (abs)        048A
_PORTB                   (abs)        0006
_RC0                     (abs)        0038
_RC1                     (abs)        0039
_RC2                     (abs)        003A
_RCEN                    (abs)        048B
_RSEN                    (abs)        0489
_SEN                     (abs)        0488
_SSPADD                  (abs)        0093
_SSPBUF                  (abs)        0013
_SSPCON                  (abs)        0014
_SSPIF                   (abs)        0063
_TRISB                   (abs)        0086
_TRISC0                  (abs)        0438
_TRISC1                  (abs)        0439
_TRISC2                  (abs)        043A
_TRISC3                  (abs)        043B
_TRISC4                  (abs)        043C
__Habs1                  abs1         0000
__Hbank0                 bank0        0000
__Hbank1                 bank1        0000
__Hbank2                 bank2        0000
__Hbank3                 bank3        0000
__HbssCOMMON             bssCOMMON    0000
__Hcinit                 cinit        0800
__Hclrtext               clrtext      0000
__Hcode                  code         0000
__Hcommon                common       0000
__Hconfig                config       2008
__HcstackCOMMON          cstackCOMMON 0000
__Heeprom_data           eeprom_data  0000
__Hend_init              end_init     0003
__Hfunctab               functab      0000
__Hidloc                 idloc        2004
__Hinit                  init         0000
__Hintentry              intentry     0000
__Hmaintext              maintext     0000
__Hpowerup               powerup      0000
__Hram                   ram          0000
__Hreset_vec             reset_vec    0000
__Hsfr0                  sfr0         0000
__Hsfr1                  sfr1         0000
__Hsfr2                  sfr2         0000
__Hsfr3                  sfr3         0000
__Hspace_0               (abs)        0800
__Hspace_1               (abs)        007C
__Hspace_2               (abs)        0000
__Hspace_3               (abs)        0000
__Hspace_4               (abs)        400F
__Hstack                 stack        0000
__Hstrings               strings      0000
__Htext                  text         0000
__Labs1                  abs1         0000
__Lbank0                 bank0        0000
__Lbank1                 bank1        0000
__Lbank2                 bank2        0000
__Lbank3                 bank3        0000
__LbssCOMMON             bssCOMMON    0000
__Lcinit                 cinit        07FA
__Lclrtext               clrtext      0000
__Lcode                  code         0000
__Lcommon                common       0000
__Lconfig                config       0000
__LcstackCOMMON          cstackCOMMON 0000
__Leeprom_data           eeprom_data  0000
__Lend_init              end_init     0000
__Lfunctab               functab      0000
__Lidloc                 idloc        0000
__Linit                  init         0000
__Lintentry              intentry     0000
__Lmaintext              maintext     0000
__Lpowerup               powerup      0000
__Lram                   ram          0000
__Lreset_vec             reset_vec    0000
__Lsfr0                  sfr0         0000
__Lsfr1                  sfr1         0000
__Lsfr2                  sfr2         0000
__Lsfr3                  sfr3         0000
__Lspace_0               (abs)        0000
__Lspace_1               (abs)        0000
__Lspace_2               (abs)        0000
__Lspace_3               (abs)        0000
__Lspace_4               (abs)        0000
__Lstack                 stack        0000
__Lstrings               strings      0000
__Ltext                  text         0000
__S0                     (abs)        0800
__S1                     (abs)        007C
__S2                     (abs)        0000
__S3                     (abs)        0000
___int_sp                stack        0000
___latbits               (abs)        0002
___sp                    stack        0000
___stackhi               (abs)        0000
___stacklo               (abs)        0000
__end_of__initialization cinit        07FC
__end_of__stringtab      strings      0009
__end_of_cmd             text4        063D
__end_of_dat             text2        065E
__end_of_i2c_init        text14       05FD
__end_of_i2c_nak         text12       05CA
__end_of_i2c_read        text11       05D6
__end_of_i2c_read_byte   text7        06FB
__end_of_i2c_restart     text10       05AE
__end_of_i2c_send        text9        05E7
__end_of_i2c_send_byte   text5        06BB
__end_of_i2c_start       text6        05C0
__end_of_i2c_stop        text8        05B7
__end_of_lcd_init        text3        0680
__end_of_main            maintext     07FA
__end_of_show            text1        061C
__end_of_waitmssp        text13       05A5
__initialization         cinit        07FA
__pbssCOMMON             bssCOMMON    007A
__pcstackCOMMON          cstackCOMMON 0070
__pmaintext              maintext     06FB
__pstrings               strings      0003
__ptext1                 text1        05FD
__ptext10                text10       05A5
__ptext11                text11       05CA
__ptext12                text12       05C0
__ptext13                text13       059D
__ptext14                text14       05E7
__ptext2                 text2        063D
__ptext3                 text3        065E
__ptext4                 text4        061C
__ptext5                 text5        0680
__ptext6                 text6        05B7
__ptext7                 text7        06BB
__ptext8                 text8        05AE
__ptext9                 text9        05D6
__size_of_cmd            (abs)        0000
__size_of_dat            (abs)        0000
__size_of_i2c_init       (abs)        0000
__size_of_i2c_nak        (abs)        0000
__size_of_i2c_read       (abs)        0000
__size_of_i2c_read_byte  (abs)        0000
__size_of_i2c_restart    (abs)        0000
__size_of_i2c_send       (abs)        0000
__size_of_i2c_send_byte  (abs)        0000
__size_of_i2c_start      (abs)        0000
__size_of_i2c_stop       (abs)        0000
__size_of_lcd_init       (abs)        0000
__size_of_main           (abs)        0000
__size_of_show           (abs)        0000
__size_of_waitmssp       (abs)        0000
__stringbase             strings      0008
__stringtab              strings      0003
_cmd                     text4        061C
_dat                     text2        063D
_i2c_init                text14       05E7
_i2c_nak                 text12       05C0
_i2c_read                text11       05CA
_i2c_read_byte           text7        06BB
_i2c_restart             text10       05A5
_i2c_send                text9        05D6
_i2c_send_byte           text5        0680
_i2c_start               text6        05B7
_i2c_stop                text8        05AE
_lcd_init                text3        065E
_main                    maintext     06FB
_show                    text1        05FD
_waitmssp                text13       059D
btemp                    (abs)        007E
cmd@a                    cstackCOMMON 0070
cmd@i                    cstackCOMMON 0071
dat@b                    cstackCOMMON 0070
dat@i                    cstackCOMMON 0071
end_of_initialization    cinit        07FC
i2c_read_byte@addr       cstackCOMMON 0072
i2c_read_byte@rec        cstackCOMMON 0073
i2c_send@dat             cstackCOMMON 0070
i2c_send_byte@addr       cstackCOMMON 0073
i2c_send_byte@count      cstackCOMMON 0071
intlevel0                functab      0000
intlevel1                functab      0000
intlevel2                functab      0000
intlevel3                functab      0000
intlevel4                functab      0000
intlevel5                functab      0000
main@i                   cstackCOMMON 0076
main@i_98                cstackCOMMON 0078
reset_vec                reset_vec    0000
show@s                   cstackCOMMON 0074
start                    init         0000
start_initialization     cinit        07FA
wtemp0                   (abs)        007E


MODULE INFORMATION

Module		Function		Class		Link	Load	Size
i2c.h
		_i2c_send_byte 		CODE           	0680	0000	59
		_i2c_start     		CODE           	05B7	0000	9
		_i2c_restart   		CODE           	05A5	0000	9
		_waitmssp      		CODE           	059D	0000	8
		_i2c_nak       		CODE           	05C0	0000	10
		_i2c_stop      		CODE           	05AE	0000	9
		_i2c_read      		CODE           	05CA	0000	12
		_i2c_init      		CODE           	05E7	0000	22
		_i2c_send      		CODE           	05D6	0000	17
		_i2c_read_byte 		CODE           	06BB	0000	64

i2c.h estimated size: 219

lcd8bit.h
		_dat           		CODE           	063D	0000	33
		_show          		CODE           	05FD	0000	31
		_cmd           		CODE           	061C	0000	33
		_lcd_init      		CODE           	065E	0000	34

lcd8bit.h estimated size: 131

shared
		__stringtab    		STRING         	0003	0000	6
		__initialization		CODE           	07FA	0000	2

shared estimated size: 8

main.c
		_main          		CODE           	06FB	0000	255

main.c estimated size: 255

